target datalayout = "e-m:e-p270:32:32-p271:32:32-p272:64:64-i64:64-i128:128-f80:128-n8:16:32:64-S128"
target triple = "x86_64-pc-linux-gnu"

; Function Attrs: nounwind uwtable
define i32 @ff_iamf_write_parameter_blocks(ptr noundef %0, ptr noundef %1, ptr noundef %2, ptr noundef %3) #0 {
  %5 = alloca i32, align 4
  %6 = alloca ptr, align 8
  %7 = alloca ptr, align 8
  %8 = alloca ptr, align 8
  %9 = alloca ptr, align 8
  %10 = alloca ptr, align 8
  %11 = alloca ptr, align 8
  %12 = alloca ptr, align 8
  %13 = alloca i32, align 4
  %14 = alloca i32, align 4
  %15 = alloca i32, align 4
  %16 = alloca i32, align 4
  store ptr %0, ptr %6, align 8, !tbaa !4
  store ptr %1, ptr %7, align 8, !tbaa !161
  store ptr %2, ptr %8, align 8, !tbaa !206
  store ptr %3, ptr %9, align 8, !tbaa !11
  call void @llvm.lifetime.start.p0(i64 8, ptr %10) #10
  %17 = load ptr, ptr %8, align 8, !tbaa !206
  %18 = call ptr @av_packet_get_side_data(ptr noundef %17, i32 noundef 32, ptr noundef null)
  store ptr %18, ptr %10, align 8, !tbaa !95
  call void @llvm.lifetime.start.p0(i64 8, ptr %11) #10
  %19 = load ptr, ptr %8, align 8, !tbaa !206
  %20 = call ptr @av_packet_get_side_data(ptr noundef %19, i32 noundef 33, ptr noundef null)
  store ptr %20, ptr %11, align 8, !tbaa !95
  call void @llvm.lifetime.start.p0(i64 8, ptr %12) #10
  %21 = load ptr, ptr %8, align 8, !tbaa !206
  %22 = call ptr @av_packet_get_side_data(ptr noundef %21, i32 noundef 34, ptr noundef null)
  store ptr %22, ptr %12, align 8, !tbaa !95
  %23 = load ptr, ptr %10, align 8, !tbaa !95
  %24 = icmp ne ptr %23, null
  br i1 %24, label %25, label %39

25:                                               ; preds = %4
  call void @llvm.lifetime.start.p0(i64 4, ptr %13) #10
  %26 = load ptr, ptr %6, align 8, !tbaa !4
  %27 = load ptr, ptr %7, align 8, !tbaa !161
  %28 = load ptr, ptr %10, align 8, !tbaa !95
  %29 = load ptr, ptr %9, align 8, !tbaa !11
  %30 = call i32 @write_parameter_block(ptr noundef %26, ptr noundef %27, ptr noundef %28, ptr noundef %29)
  store i32 %30, ptr %13, align 4, !tbaa !39
  %31 = load i32, ptr %13, align 4, !tbaa !39
  %32 = icmp slt i32 %31, 0
  br i1 %32, label %33, label %35

33:                                               ; preds = %25
  %34 = load i32, ptr %13, align 4, !tbaa !39
  store i32 %34, ptr %5, align 4
  store i32 1, ptr %14, align 4
  br label %36

35:                                               ; preds = %25
  store i32 0, ptr %14, align 4
  br label %36

36:                                               ; preds = %35, %33
  call void @llvm.lifetime.end.p0(i64 4, ptr %13) #10
  %37 = load i32, ptr %14, align 4
  switch i32 %37, label %74 [
    i32 0, label %38
  ]

38:                                               ; preds = %36
  br label %39

39:                                               ; preds = %38, %4
  %40 = load ptr, ptr %11, align 8, !tbaa !95
  %41 = icmp ne ptr %40, null
  br i1 %41, label %42, label %56

42:                                               ; preds = %39
  call void @llvm.lifetime.start.p0(i64 4, ptr %15) #10
  %43 = load ptr, ptr %6, align 8, !tbaa !4
  %44 = load ptr, ptr %7, align 8, !tbaa !161
  %45 = load ptr, ptr %11, align 8, !tbaa !95
  %46 = load ptr, ptr %9, align 8, !tbaa !11
  %47 = call i32 @write_parameter_block(ptr noundef %43, ptr noundef %44, ptr noundef %45, ptr noundef %46)
  store i32 %47, ptr %15, align 4, !tbaa !39
  %48 = load i32, ptr %15, align 4, !tbaa !39
  %49 = icmp slt i32 %48, 0
  br i1 %49, label %50, label %52

50:                                               ; preds = %42
  %51 = load i32, ptr %15, align 4, !tbaa !39
  store i32 %51, ptr %5, align 4
  store i32 1, ptr %14, align 4
  br label %53

52:                                               ; preds = %42
  store i32 0, ptr %14, align 4
  br label %53

53:                                               ; preds = %52, %50
  call void @llvm.lifetime.end.p0(i64 4, ptr %15) #10
  %54 = load i32, ptr %14, align 4
  switch i32 %54, label %74 [
    i32 0, label %55
  ]

55:                                               ; preds = %53
  br label %56

56:                                               ; preds = %55, %39
  %57 = load ptr, ptr %12, align 8, !tbaa !95
  %58 = icmp ne ptr %57, null
  br i1 %58, label %59, label %73

59:                                               ; preds = %56
  call void @llvm.lifetime.start.p0(i64 4, ptr %16) #10
  %60 = load ptr, ptr %6, align 8, !tbaa !4
  %61 = load ptr, ptr %7, align 8, !tbaa !161
  %62 = load ptr, ptr %12, align 8, !tbaa !95
  %63 = load ptr, ptr %9, align 8, !tbaa !11
  %64 = call i32 @write_parameter_block(ptr noundef %60, ptr noundef %61, ptr noundef %62, ptr noundef %63)
  store i32 %64, ptr %16, align 4, !tbaa !39
  %65 = load i32, ptr %16, align 4, !tbaa !39
  %66 = icmp slt i32 %65, 0
  br i1 %66, label %67, label %69

67:                                               ; preds = %59
  %68 = load i32, ptr %16, align 4, !tbaa !39
  store i32 %68, ptr %5, align 4
  store i32 1, ptr %14, align 4
  br label %70

69:                                               ; preds = %59
  store i32 0, ptr %14, align 4
  br label %70

70:                                               ; preds = %69, %67
  call void @llvm.lifetime.end.p0(i64 4, ptr %16) #10
  %71 = load i32, ptr %14, align 4
  switch i32 %71, label %74 [
    i32 0, label %72
  ]

72:                                               ; preds = %70
  br label %73

73:                                               ; preds = %72, %56
  store i32 0, ptr %5, align 4
  store i32 1, ptr %14, align 4
  br label %74

74:                                               ; preds = %73, %70, %53, %36
  call void @llvm.lifetime.end.p0(i64 8, ptr %12) #10
  call void @llvm.lifetime.end.p0(i64 8, ptr %11) #10
  call void @llvm.lifetime.end.p0(i64 8, ptr %10) #10
  %75 = load i32, ptr %5, align 4
  ret i32 %75
}