; Function Attrs: nounwind uwtable
define range(i32 -2147483648, 1) i32 @ff_iamf_write_parameter_blocks(ptr noundef readonly captures(none) %0, ptr noundef %1, ptr noundef %2, ptr noundef %3) local_unnamed_addr #0 {
  %5 = tail call ptr @av_packet_get_side_data(ptr noundef %2, i32 noundef 32, ptr noundef null) #9
  %6 = tail call ptr @av_packet_get_side_data(ptr noundef %2, i32 noundef 33, ptr noundef null) #9
  %7 = tail call ptr @av_packet_get_side_data(ptr noundef %2, i32 noundef 34, ptr noundef null) #9
  %.not = icmp eq ptr %5, null
  br i1 %.not, label %11, label %8

8:                                                ; preds = %4
  %9 = tail call fastcc i32 @write_parameter_block(ptr noundef %0, ptr noundef %1, ptr noundef %5, ptr noundef %3)
  %10 = icmp sgt i32 %9, -1
  br i1 %10, label %11, label %20

11:                                               ; preds = %8, %4
  %.not37 = icmp eq ptr %6, null
  br i1 %.not37, label %15, label %12

12:                                               ; preds = %11
  %13 = tail call fastcc i32 @write_parameter_block(ptr noundef %0, ptr noundef %1, ptr noundef %6, ptr noundef %3)
  %14 = icmp sgt i32 %13, -1
  br i1 %14, label %15, label %20

15:                                               ; preds = %12, %11
  %.not38 = icmp eq ptr %7, null
  br i1 %.not38, label %19, label %16

16:                                               ; preds = %15
  %17 = tail call fastcc i32 @write_parameter_block(ptr noundef %0, ptr noundef %1, ptr noundef %7, ptr noundef %3)
  %18 = icmp sgt i32 %17, -1
  br i1 %18, label %19, label %20

19:                                               ; preds = %16, %15
  br label %20

20:                                               ; preds = %8, %12, %16, %19
  %.2 = phi i32 [ 0, %19 ], [ %17, %16 ], [ %13, %12 ], [ %9, %8 ]
  ret i32 %.2
}